target datalayout = "e-m:e-p270:32:32-p271:32:32-p272:64:64-i64:64-i128:128-f80:128-n8:16:32:64-S128"
target triple = "x86_64-pc-linux-gnu"

%struct.Aig_ManCut_t_ = type { ptr, ptr, i32, i32, i32, i32, i32, i32, ptr, [4 x ptr] }
%struct.Aig_Man_t_ = type { ptr, ptr, ptr, ptr, ptr, ptr, ptr, %struct.Aig_Obj_t_, i32, i32, i32, i32, i32, i32, [7 x i32], i32, ptr, i32, ptr, i32, ptr, i32, i32, i32, ptr, i32, i32, i32, i32, i32, ptr, ptr, i32, ptr, ptr, i32, ptr, ptr, i32, i32, i32, ptr, ptr, ptr, ptr, ptr, ptr, ptr, ptr, ptr, ptr, ptr, ptr, ptr, ptr, i32, ptr, ptr, ptr, ptr, i32, i64, i64, i64, ptr, ptr }
%struct.Aig_Obj_t_ = type { %union.anon, ptr, ptr, i64, i32, i32, %union.anon.0 }
%union.anon = type { ptr }
%union.anon.0 = type { ptr }
%struct.Vec_Ptr_t_ = type { i32, i32, ptr }

; Function Attrs: inlinehint nounwind uwtable
define internal i32 @Vec_PtrSize(ptr noundef %0) #5 {
  %2 = alloca ptr, align 8
  store ptr %0, ptr %2, align 8, !tbaa !50
  %3 = load ptr, ptr %2, align 8, !tbaa !50
  %4 = getelementptr inbounds nuw %struct.Vec_Ptr_t_, ptr %3, i32 0, i32 1
  %5 = load i32, ptr %4, align 4, !tbaa !51
  ret i32 %5
}

; Function Attrs: inlinehint nounwind uwtable
define internal i32 @Abc_TruthWordNum(i32 noundef %0) #5 {
  %2 = alloca i32, align 4
  store i32 %0, ptr %2, align 4, !tbaa !8
  %3 = load i32, ptr %2, align 4, !tbaa !8
  %4 = icmp sle i32 %3, 5
  br i1 %4, label %5, label %6

5:                                                ; preds = %1
  br label %10

6:                                                ; preds = %1
  %7 = load i32, ptr %2, align 4, !tbaa !8
  %8 = sub nsw i32 %7, 5
  %9 = shl i32 1, %8
  br label %10

10:                                               ; preds = %6, %5
  %11 = phi i32 [ 1, %5 ], [ %9, %6 ]
  ret i32 %11
}

; Function Attrs: inlinehint nounwind uwtable
define internal i32 @Aig_ManObjNumMax(ptr noundef %0) #5 {
  %2 = alloca ptr, align 8
  store ptr %0, ptr %2, align 8, !tbaa !3
  %3 = load ptr, ptr %2, align 8, !tbaa !3
  %4 = getelementptr inbounds nuw %struct.Aig_Man_t_, ptr %3, i32 0, i32 4
  %5 = load ptr, ptr %4, align 8, !tbaa !26
  %6 = call i32 @Vec_PtrSize(ptr noundef %5)
  ret i32 %6
}

; Function Attrs: nounwind uwtable
define ptr @Aig_ManCutStart(ptr noundef %0, i32 noundef %1, i32 noundef %2, i32 noundef %3, i32 noundef %4) #0 {
  %6 = alloca ptr, align 8
  %7 = alloca i32, align 4
  %8 = alloca i32, align 4
  %9 = alloca i32, align 4
  %10 = alloca i32, align 4
  %11 = alloca ptr, align 8
  store ptr %0, ptr %6, align 8, !tbaa !3
  store i32 %1, ptr %7, align 4, !tbaa !8
  store i32 %2, ptr %8, align 4, !tbaa !8
  store i32 %3, ptr %9, align 4, !tbaa !8
  store i32 %4, ptr %10, align 4, !tbaa !8
  call void @llvm.lifetime.start.p0(i64 8, ptr %11) #10
  %12 = call noalias ptr @malloc(i64 noundef 80) #11
  store ptr %12, ptr %11, align 8, !tbaa !10
  %13 = load ptr, ptr %11, align 8, !tbaa !10
  call void @llvm.memset.p0.i64(ptr align 8 %13, i8 0, i64 80, i1 false)
  %14 = load i32, ptr %7, align 4, !tbaa !8
  %15 = load ptr, ptr %11, align 8, !tbaa !10
  %16 = getelementptr inbounds nuw %struct.Aig_ManCut_t_, ptr %15, i32 0, i32 2
  store i32 %14, ptr %16, align 8, !tbaa !12
  %17 = load i32, ptr %8, align 4, !tbaa !8
  %18 = load ptr, ptr %11, align 8, !tbaa !10
  %19 = getelementptr inbounds nuw %struct.Aig_ManCut_t_, ptr %18, i32 0, i32 3
  store i32 %17, ptr %19, align 4, !tbaa !16
  %20 = load i32, ptr %9, align 4, !tbaa !8
  %21 = load ptr, ptr %11, align 8, !tbaa !10
  %22 = getelementptr inbounds nuw %struct.Aig_ManCut_t_, ptr %21, i32 0, i32 4
  store i32 %20, ptr %22, align 8, !tbaa !17
  %23 = load i32, ptr %10, align 4, !tbaa !8
  %24 = load ptr, ptr %11, align 8, !tbaa !10
  %25 = getelementptr inbounds nuw %struct.Aig_ManCut_t_, ptr %24, i32 0, i32 5
  store i32 %23, ptr %25, align 4, !tbaa !18
  %26 = load ptr, ptr %6, align 8, !tbaa !3
  %27 = load ptr, ptr %11, align 8, !tbaa !10
  %28 = getelementptr inbounds nuw %struct.Aig_ManCut_t_, ptr %27, i32 0, i32 0
  store ptr %26, ptr %28, align 8, !tbaa !19
  %29 = load ptr, ptr %6, align 8, !tbaa !3
  %30 = call i32 @Aig_ManObjNumMax(ptr noundef %29)
  %31 = sext i32 %30 to i64
  %32 = call noalias ptr @calloc(i64 noundef %31, i64 noundef 8) #12
  %33 = load ptr, ptr %11, align 8, !tbaa !10
  %34 = getelementptr inbounds nuw %struct.Aig_ManCut_t_, ptr %33, i32 0, i32 1
  store ptr %32, ptr %34, align 8, !tbaa !20
  %35 = load i32, ptr %8, align 4, !tbaa !8
  %36 = call i32 @Abc_TruthWordNum(i32 noundef %35)
  %37 = load ptr, ptr %11, align 8, !tbaa !10
  %38 = getelementptr inbounds nuw %struct.Aig_ManCut_t_, ptr %37, i32 0, i32 7
  store i32 %36, ptr %38, align 4, !tbaa !21
  %39 = load i32, ptr %8, align 4, !tbaa !8
  %40 = sext i32 %39 to i64
  %41 = mul i64 4, %40
  %42 = add i64 24, %41
  %43 = load i32, ptr %9, align 4, !tbaa !8
  %44 = sext i32 %43 to i64
  %45 = mul i64 %44, 4
  %46 = load ptr, ptr %11, align 8, !tbaa !10
  %47 = getelementptr inbounds nuw %struct.Aig_ManCut_t_, ptr %46, i32 0, i32 7
  %48 = load i32, ptr %47, align 4, !tbaa !21
  %49 = sext i32 %48 to i64
  %50 = mul i64 %45, %49
  %51 = add i64 %42, %50
  %52 = trunc i64 %51 to i32
  %53 = load ptr, ptr %11, align 8, !tbaa !10
  %54 = getelementptr inbounds nuw %struct.Aig_ManCut_t_, ptr %53, i32 0, i32 6
  store i32 %52, ptr %54, align 8, !tbaa !22
  %55 = load ptr, ptr %11, align 8, !tbaa !10
  %56 = getelementptr inbounds nuw %struct.Aig_ManCut_t_, ptr %55, i32 0, i32 6
  %57 = load i32, ptr %56, align 8, !tbaa !22
  %58 = load ptr, ptr %11, align 8, !tbaa !10
  %59 = getelementptr inbounds nuw %struct.Aig_ManCut_t_, ptr %58, i32 0, i32 2
  %60 = load i32, ptr %59, align 8, !tbaa !12
  %61 = mul nsw i32 %57, %60
  %62 = call ptr @Aig_MmFixedStart(i32 noundef %61, i32 noundef 512)
  %63 = load ptr, ptr %11, align 8, !tbaa !10
  %64 = getelementptr inbounds nuw %struct.Aig_ManCut_t_, ptr %63, i32 0, i32 8
  store ptr %62, ptr %64, align 8, !tbaa !23
  %65 = load i32, ptr %9, align 4, !tbaa !8
  %66 = icmp ne i32 %65, 0
  br i1 %66, label %67, label %114

67:                                               ; preds = %5
  %68 = load ptr, ptr %11, align 8, !tbaa !10
  %69 = getelementptr inbounds nuw %struct.Aig_ManCut_t_, ptr %68, i32 0, i32 7
  %70 = load i32, ptr %69, align 4, !tbaa !21
  %71 = mul nsw i32 4, %70
  %72 = sext i32 %71 to i64
  %73 = mul i64 4, %72
  %74 = call noalias ptr @malloc(i64 noundef %73) #11
  %75 = load ptr, ptr %11, align 8, !tbaa !10
  %76 = getelementptr inbounds nuw %struct.Aig_ManCut_t_, ptr %75, i32 0, i32 9
  %77 = getelementptr inbounds [4 x ptr], ptr %76, i64 0, i64 0
  store ptr %74, ptr %77, align 8, !tbaa !24
  %78 = load ptr, ptr %11, align 8, !tbaa !10
  %79 = getelementptr inbounds nuw %struct.Aig_ManCut_t_, ptr %78, i32 0, i32 9
  %80 = getelementptr inbounds [4 x ptr], ptr %79, i64 0, i64 0
  %81 = load ptr, ptr %80, align 8, !tbaa !24
  %82 = load ptr, ptr %11, align 8, !tbaa !10
  %83 = getelementptr inbounds nuw %struct.Aig_ManCut_t_, ptr %82, i32 0, i32 7
  %84 = load i32, ptr %83, align 4, !tbaa !21
  %85 = sext i32 %84 to i64
  %86 = getelementptr inbounds i32, ptr %81, i64 %85
  %87 = load ptr, ptr %11, align 8, !tbaa !10
  %88 = getelementptr inbounds nuw %struct.Aig_ManCut_t_, ptr %87, i32 0, i32 9
  %89 = getelementptr inbounds [4 x ptr], ptr %88, i64 0, i64 1
  store ptr %86, ptr %89, align 8, !tbaa !24
  %90 = load ptr, ptr %11, align 8, !tbaa !10
  %91 = getelementptr inbounds nuw %struct.Aig_ManCut_t_, ptr %90, i32 0, i32 9
  %92 = getelementptr inbounds [4 x ptr], ptr %91, i64 0, i64 1
  %93 = load ptr, ptr %92, align 8, !tbaa !24
  %94 = load ptr, ptr %11, align 8, !tbaa !10
  %95 = getelementptr inbounds nuw %struct.Aig_ManCut_t_, ptr %94, i32 0, i32 7
  %96 = load i32, ptr %95, align 4, !tbaa !21
  %97 = sext i32 %96 to i64
  %98 = getelementptr inbounds i32, ptr %93, i64 %97
  %99 = load ptr, ptr %11, align 8, !tbaa !10
  %100 = getelementptr inbounds nuw %struct.Aig_ManCut_t_, ptr %99, i32 0, i32 9
  %101 = getelementptr inbounds [4 x ptr], ptr %100, i64 0, i64 2
  store ptr %98, ptr %101, align 8, !tbaa !24
  %102 = load ptr, ptr %11, align 8, !tbaa !10
  %103 = getelementptr inbounds nuw %struct.Aig_ManCut_t_, ptr %102, i32 0, i32 9
  %104 = getelementptr inbounds [4 x ptr], ptr %103, i64 0, i64 2
  %105 = load ptr, ptr %104, align 8, !tbaa !24
  %106 = load ptr, ptr %11, align 8, !tbaa !10
  %107 = getelementptr inbounds nuw %struct.Aig_ManCut_t_, ptr %106, i32 0, i32 7
  %108 = load i32, ptr %107, align 4, !tbaa !21
  %109 = sext i32 %108 to i64
  %110 = getelementptr inbounds i32, ptr %105, i64 %109
  %111 = load ptr, ptr %11, align 8, !tbaa !10
  %112 = getelementptr inbounds nuw %struct.Aig_ManCut_t_, ptr %111, i32 0, i32 9
  %113 = getelementptr inbounds [4 x ptr], ptr %112, i64 0, i64 3
  store ptr %110, ptr %113, align 8, !tbaa !24
  br label %114

114:                                              ; preds = %67, %5
  %115 = load ptr, ptr %11, align 8, !tbaa !10
  call void @llvm.lifetime.end.p0(i64 8, ptr %11) #10
  ret ptr %115
}