; Function Attrs: nounwind uwtable
define noalias noundef ptr @Aig_ManCutStart(ptr noundef %0, i32 noundef %1, i32 noundef %2, i32 noundef %3, i32 noundef %4) local_unnamed_addr #0 {
  %calloc = tail call dereferenceable_or_null(80) ptr @calloc(i64 1, i64 80)
  %6 = getelementptr inbounds nuw i8, ptr %calloc, i64 16
  store i32 %1, ptr %6, align 8, !tbaa !3
  %7 = getelementptr inbounds nuw i8, ptr %calloc, i64 20
  store i32 %2, ptr %7, align 4, !tbaa !12
  %8 = getelementptr inbounds nuw i8, ptr %calloc, i64 24
  store i32 %3, ptr %8, align 8, !tbaa !13
  %9 = getelementptr inbounds nuw i8, ptr %calloc, i64 28
  store i32 %4, ptr %9, align 4, !tbaa !14
  store ptr %0, ptr %calloc, align 8, !tbaa !15
  %10 = getelementptr i8, ptr %0, i64 32
  %.val = load ptr, ptr %10, align 8, !tbaa !16
  %11 = getelementptr i8, ptr %.val, i64 4
  %.val.val = load i32, ptr %11, align 4, !tbaa !28
  %12 = sext i32 %.val.val to i64
  %13 = tail call noalias ptr @calloc(i64 noundef %12, i64 noundef 8) #19
  %14 = getelementptr inbounds nuw i8, ptr %calloc, i64 8
  store ptr %13, ptr %14, align 8, !tbaa !30
  %15 = icmp slt i32 %2, 6
  %16 = add nsw i32 %2, -5
  %17 = shl nuw i32 1, %16
  %18 = select i1 %15, i32 1, i32 %17
  %19 = getelementptr inbounds nuw i8, ptr %calloc, i64 36
  store i32 %18, ptr %19, align 4, !tbaa !31
  %20 = shl i32 %2, 2
  %21 = add i32 %20, 24
  %22 = shl i32 %3, 2
  %23 = select i1 %15, i32 0, i32 %16
  %24 = shl i32 %22, %23
  %25 = add i32 %21, %24
  %26 = getelementptr inbounds nuw i8, ptr %calloc, i64 32
  store i32 %25, ptr %26, align 8, !tbaa !32
  %27 = mul nsw i32 %25, %1
  %28 = tail call ptr @Aig_MmFixedStart(i32 noundef %27, i32 noundef 512) #20
  %29 = getelementptr inbounds nuw i8, ptr %calloc, i64 40
  store ptr %28, ptr %29, align 8, !tbaa !33
  %.not = icmp eq i32 %3, 0
  br i1 %.not, label %43, label %30

30:                                               ; preds = %5
  %31 = shl nsw i32 %18, 2
  %32 = sext i32 %31 to i64
  %33 = shl nsw i64 %32, 2
  %34 = tail call noalias ptr @malloc(i64 noundef %33) #21
  %35 = getelementptr inbounds nuw i8, ptr %calloc, i64 48
  store ptr %34, ptr %35, align 8, !tbaa !34
  %36 = sext i32 %18 to i64
  %37 = getelementptr inbounds i32, ptr %34, i64 %36
  %38 = getelementptr inbounds nuw i8, ptr %calloc, i64 56
  store ptr %37, ptr %38, align 8, !tbaa !34
  %39 = getelementptr inbounds i32, ptr %37, i64 %36
  %40 = getelementptr inbounds nuw i8, ptr %calloc, i64 64
  store ptr %39, ptr %40, align 8, !tbaa !34
  %41 = getelementptr inbounds i32, ptr %39, i64 %36
  %42 = getelementptr inbounds nuw i8, ptr %calloc, i64 72
  store ptr %41, ptr %42, align 8, !tbaa !34
  br label %43

43:                                               ; preds = %30, %5
  ret ptr %calloc
}